	.cpu generic+fp+simd
	.file	"rtl865x_asicBasic.c"
	.text
.Ltext0:
	.cfi_sections	.debug_frame
#APP
	.irp	num,0,1,2,3,4,5,6,7,8,9,10,11,12,13,14,15,16,17,18,19,20,21,22,23,24,25,26,27,28,29,30
	.equ	.L__reg_num_x\num, \num
	.endr
	.equ	.L__reg_num_xzr, 31

	.macro	mrs_s, rt, sreg
	.inst	0xd5200000|(\sreg)|(.L__reg_num_\rt)
	.endm

	.macro	msr_s, sreg, rt
	.inst	0xd5000000|(\sreg)|(.L__reg_num_\rt)
	.endm

#NO_APP
	.align	2
	.type	_rtl8651_asicTableAccessForward, %function
_rtl8651_asicTableAccessForward:
.LFB1453:
	.file 1 "drivers/soc/realtek/rtd129x/hw_nat/rtl865x/../AsicDriver/rtl865x_asicBasic.c"
	.loc 1 87 0
	.cfi_startproc
	stp	x29, x30, [sp, -96]!
	.cfi_def_cfa_offset 96
	.cfi_offset 29, -96
	.cfi_offset 30, -88
	add	x29, sp, 0
	.cfi_def_cfa_register 29
	stp	x19, x20, [sp, 16]
	stp	x21, x22, [sp, 32]
	stp	x23, x24, [sp, 48]
	stp	x25, x26, [sp, 64]
	str	x27, [sp, 80]
	.cfi_offset 19, -80
	.cfi_offset 20, -72
	.cfi_offset 21, -64
	.cfi_offset 22, -56
	.cfi_offset 23, -48
	.cfi_offset 24, -40
	.cfi_offset 25, -32
	.cfi_offset 26, -24
	.cfi_offset 27, -16
	mov	w21, w0
	mov	w22, w1
	mov	x20, x2
	.loc 1 90 0
	adrp	x1, rtl_hwnat_mmio
	.loc 1 88 0
	cbnz	x2, .L6
	.loc 1 88 0 is_stmt 0 discriminator 1
	mov	w2, 88
	adrp	x1, .LC0
	add	x1, x1, :lo12:.LC0
	adrp	x0, .LC1
	add	x0, x0, :lo12:.LC1
	bl	printk
.L3:
	b	.L3
.L6:
	.loc 1 90 0 is_stmt 1 discriminator 1
	ldr	x0, [x1, #:lo12:rtl_hwnat_mmio]
	add	x0, x0, 1458176
	add	x0, x0, 3328
.LBB215:
.LBB216:
.LBB217:
.LBB218:
.LBB219:
	.file 2 "./arch/arm64/include/asm/io.h"
	.loc 2 91 0 discriminator 1
#APP
// 91 "./arch/arm64/include/asm/io.h" 1
	.if (1 || 0) == 1
661:
	ldr w0, [x0]
662:
.pushsection .altinstructions,"a"
 .word 661b - .
 .word 663f - .
 .hword 1
 .byte 662b-661b
 .byte 664f-663f
.popsection
.pushsection .altinstr_replacement, "a"
663:
	ldar w0, [x0]
664:
	.popsection
	.org	. - (664b-663b) + (662b-661b)
	.org	. - (662b-661b) + (664b-663b)
.endif

// 0 "" 2
#NO_APP
.LBE219:
.LBE218:
.LBE217:
	.file 3 "include/asm-generic/io.h"
	.loc 3 584 0 discriminator 1
#APP
// 584 "include/asm-generic/io.h" 1
	dsb ld
// 0 "" 2
#NO_APP
.LBE216:
.LBE215:
	.loc 1 90 0 discriminator 1
	tbnz	x0, 0, .L6
.LBB220:
	.loc 1 97 0 discriminator 1
	adrp	x0, .LANCHOR0
	add	x0, x0, :lo12:.LANCHOR0
	ldr	w0, [x0, w21, uxtw 2]
	cbz	w0, .L4
	.loc 1 97 0 is_stmt 0
	mov	w19, 0
	.loc 1 99 0 is_stmt 1
	adrp	x26, rtl_hwnat_mmio
	.loc 1 97 0
	adrp	x25, .LANCHOR0
	uxtw	x24, w21
.L5:
	.loc 1 99 0 discriminator 3
	ldr	w23, [x20, w19, uxtw 2]
	ldr	x0, [x26, #:lo12:rtl_hwnat_mmio]
	add	x0, x0, 1458176
	add	x0, x0, 3360
	ubfiz	x27, x19, 2, 30
	add	x27, x0, x27
.LBB221:
.LBB222:
	.loc 3 608 0 discriminator 3
#APP
// 608 "include/asm-generic/io.h" 1
	dmb ishst
// 0 "" 2
#NO_APP
	bl	rtk_bus_sync
.LBB223:
.LBB224:
	.loc 2 55 0 discriminator 3
#APP
// 55 "./arch/arm64/include/asm/io.h" 1
	str w23, [x27]
// 0 "" 2
#NO_APP
.LBE224:
.LBE223:
.LBE222:
.LBE221:
	.loc 1 97 0 discriminator 3
	add	w19, w19, 1
	add	x0, x25, :lo12:.LANCHOR0
	ldr	w0, [x0, x24, lsl 2]
	cmp	w0, w19
	bhi	.L5
.L4:
.LBE220:
	.loc 1 124 0
	adrp	x0, rtl_hwnat_base
	ldr	w0, [x0, #:lo12:rtl_hwnat_base]
	add	w22, w0, w22, lsl 5
	add	w21, w22, w21, lsl 16
	adrp	x0, rtl_hwnat_mmio
	ldr	x19, [x0, #:lo12:rtl_hwnat_mmio]
	add	x19, x19, 1458176
	add	x19, x19, 3336
.LBB225:
.LBB226:
	.loc 3 608 0
#APP
// 608 "include/asm-generic/io.h" 1
	dmb ishst
// 0 "" 2
#NO_APP
	bl	rtk_bus_sync
.LBB227:
.LBB228:
	.loc 2 55 0
#APP
// 55 "./arch/arm64/include/asm/io.h" 1
	str w21, [x19]
// 0 "" 2
#NO_APP
.LBE228:
.LBE227:
.LBE226:
.LBE225:
	.loc 1 128 0
	ldp	x19, x20, [sp, 16]
	ldp	x21, x22, [sp, 32]
	ldp	x23, x24, [sp, 48]
	ldp	x25, x26, [sp, 64]
	ldr	x27, [sp, 80]
	ldp	x29, x30, [sp], 96
	.cfi_restore 30
	.cfi_restore 29
	.cfi_restore 27
	.cfi_restore 25
	.cfi_restore 26
	.cfi_restore 23
	.cfi_restore 24
	.cfi_restore 21
	.cfi_restore 22
	.cfi_restore 19
	.cfi_restore 20
	.cfi_def_cfa 31, 0
	ret
	.cfi_endproc
.LFE1453:
	.size	_rtl8651_asicTableAccessForward, .-_rtl8651_asicTableAccessForward
	.align	2
	.global	_rtl8651_addAsicEntry
	.type	_rtl8651_addAsicEntry, %function
_rtl8651_addAsicEntry:
.LFB1454:
	.loc 1 131 0
	.cfi_startproc
	stp	x29, x30, [sp, -32]!
	.cfi_def_cfa_offset 32
	.cfi_offset 29, -32
	.cfi_offset 30, -24
	add	x29, sp, 0
	.cfi_def_cfa_register 29
	stp	x19, x20, [sp, 16]
	.cfi_offset 19, -16
	.cfi_offset 20, -8
	.loc 1 132 0
	bl	_rtl8651_asicTableAccessForward
	.loc 1 137 0
	adrp	x0, rtl_hwnat_mmio
	ldr	x19, [x0, #:lo12:rtl_hwnat_mmio]
	add	x19, x19, 1458176
	add	x19, x19, 1048
.LBB229:
.LBB230:
.LBB231:
.LBB232:
.LBB233:
	.loc 2 91 0
#APP
// 91 "./arch/arm64/include/asm/io.h" 1
	.if (1 || 0) == 1
661:
	ldr w19, [x19]
662:
.pushsection .altinstructions,"a"
 .word 661b - .
 .word 663f - .
 .hword 1
 .byte 662b-661b
 .byte 664f-663f
.popsection
.pushsection .altinstr_replacement, "a"
663:
	ldar w19, [x19]
664:
	.popsection
	.org	. - (664b-663b) + (662b-661b)
	.org	. - (662b-661b) + (664b-663b)
.endif

// 0 "" 2
#NO_APP
.LBE233:
.LBE232:
.LBE231:
	.loc 3 584 0
#APP
// 584 "include/asm-generic/io.h" 1
	dsb ld
// 0 "" 2
#NO_APP
.LBE230:
.LBE229:
	.loc 1 137 0
	ldr	x20, [x0, #:lo12:rtl_hwnat_mmio]
	add	x20, x20, 1458176
	add	x20, x20, 1048
.LBB234:
.LBB235:
	.loc 3 608 0
#APP
// 608 "include/asm-generic/io.h" 1
	dmb ishst
// 0 "" 2
#NO_APP
	bl	rtk_bus_sync
.LBE235:
.LBE234:
	.loc 1 137 0
	orr	w19, w19, 262144
.LBB239:
.LBB238:
.LBB236:
.LBB237:
	.loc 2 55 0
#APP
// 55 "./arch/arm64/include/asm/io.h" 1
	str w19, [x20]
// 0 "" 2
#NO_APP
.LBE237:
.LBE236:
.LBE238:
.LBE239:
	.loc 1 138 0
	adrp	x1, rtl_hwnat_mmio
.L10:
	.loc 1 138 0 is_stmt 0 discriminator 1
	ldr	x0, [x1, #:lo12:rtl_hwnat_mmio]
	add	x0, x0, 1458176
	add	x0, x0, 1048
.LBB240:
.LBB241:
.LBB242:
.LBB243:
.LBB244:
	.loc 2 91 0 is_stmt 1 discriminator 1
#APP
// 91 "./arch/arm64/include/asm/io.h" 1
	.if (1 || 0) == 1
661:
	ldr w0, [x0]
662:
.pushsection .altinstructions,"a"
 .word 661b - .
 .word 663f - .
 .hword 1
 .byte 662b-661b
 .byte 664f-663f
.popsection
.pushsection .altinstr_replacement, "a"
663:
	ldar w0, [x0]
664:
	.popsection
	.org	. - (664b-663b) + (662b-661b)
	.org	. - (662b-661b) + (664b-663b)
.endif

// 0 "" 2
#NO_APP
.LBE244:
.LBE243:
.LBE242:
	.loc 3 584 0 discriminator 1
#APP
// 584 "include/asm-generic/io.h" 1
	dsb ld
// 0 "" 2
#NO_APP
.LBE241:
.LBE240:
	.loc 1 138 0 discriminator 1
	tbz	x0, 19, .L10
	.loc 1 142 0
	adrp	x0, rtl_hwnat_mmio
	ldr	x19, [x0, #:lo12:rtl_hwnat_mmio]
	add	x19, x19, 1458176
	add	x19, x19, 3328
.LBB245:
.LBB246:
	.loc 3 608 0
#APP
// 608 "include/asm-generic/io.h" 1
	dmb ishst
// 0 "" 2
#NO_APP
	bl	rtk_bus_sync
.LBB247:
.LBB248:
	.loc 2 55 0
	mov	w0, 3
#APP
// 55 "./arch/arm64/include/asm/io.h" 1
	str w0, [x19]
// 0 "" 2
#NO_APP
.LBE248:
.LBE247:
.LBE246:
.LBE245:
	.loc 1 144 0
	adrp	x1, rtl_hwnat_mmio
.L11:
	.loc 1 144 0 is_stmt 0 discriminator 1
	ldr	x0, [x1, #:lo12:rtl_hwnat_mmio]
	add	x0, x0, 1458176
	add	x0, x0, 3328
.LBB249:
.LBB250:
.LBB251:
.LBB252:
.LBB253:
	.loc 2 91 0 is_stmt 1 discriminator 1
#APP
// 91 "./arch/arm64/include/asm/io.h" 1
	.if (1 || 0) == 1
661:
	ldr w0, [x0]
662:
.pushsection .altinstructions,"a"
 .word 661b - .
 .word 663f - .
 .hword 1
 .byte 662b-661b
 .byte 664f-663f
.popsection
.pushsection .altinstr_replacement, "a"
663:
	ldar w0, [x0]
664:
	.popsection
	.org	. - (664b-663b) + (662b-661b)
	.org	. - (662b-661b) + (664b-663b)
.endif

// 0 "" 2
#NO_APP
.LBE253:
.LBE252:
.LBE251:
	.loc 3 584 0 discriminator 1
#APP
// 584 "include/asm-generic/io.h" 1
	dsb ld
// 0 "" 2
#NO_APP
.LBE250:
.LBE249:
	.loc 1 144 0 discriminator 1
	tbnz	x0, 0, .L11
	.loc 1 146 0
	adrp	x0, rtl_hwnat_mmio
	ldr	x0, [x0, #:lo12:rtl_hwnat_mmio]
	add	x0, x0, 1458176
	add	x0, x0, 3332
.LBB254:
.LBB255:
.LBB256:
.LBB257:
.LBB258:
	.loc 2 91 0
#APP
// 91 "./arch/arm64/include/asm/io.h" 1
	.if (1 || 0) == 1
661:
	ldr w0, [x0]
662:
.pushsection .altinstructions,"a"
 .word 661b - .
 .word 663f - .
 .hword 1
 .byte 662b-661b
 .byte 664f-663f
.popsection
.pushsection .altinstr_replacement, "a"
663:
	ldar w0, [x0]
664:
	.popsection
	.org	. - (664b-663b) + (662b-661b)
	.org	. - (662b-661b) + (664b-663b)
.endif

// 0 "" 2
#NO_APP
.LBE258:
.LBE257:
.LBE256:
	.loc 3 584 0
#APP
// 584 "include/asm-generic/io.h" 1
	dsb ld
// 0 "" 2
#NO_APP
.LBE255:
.LBE254:
	.loc 1 146 0
	tbz	x0, 0, .L12
	.loc 1 151 0
	adrp	x0, rtl_hwnat_mmio
	ldr	x19, [x0, #:lo12:rtl_hwnat_mmio]
	add	x19, x19, 1458176
	add	x19, x19, 1048
.LBB259:
.LBB260:
.LBB261:
.LBB262:
.LBB263:
	.loc 2 91 0
#APP
// 91 "./arch/arm64/include/asm/io.h" 1
	.if (1 || 0) == 1
661:
	ldr w19, [x19]
662:
.pushsection .altinstructions,"a"
 .word 661b - .
 .word 663f - .
 .hword 1
 .byte 662b-661b
 .byte 664f-663f
.popsection
.pushsection .altinstr_replacement, "a"
663:
	ldar w19, [x19]
664:
	.popsection
	.org	. - (664b-663b) + (662b-661b)
	.org	. - (662b-661b) + (664b-663b)
.endif

// 0 "" 2
#NO_APP
.LBE263:
.LBE262:
.LBE261:
	.loc 3 584 0
#APP
// 584 "include/asm-generic/io.h" 1
	dsb ld
// 0 "" 2
#NO_APP
.LBE260:
.LBE259:
	.loc 1 151 0
	ldr	x20, [x0, #:lo12:rtl_hwnat_mmio]
	add	x20, x20, 1458176
	add	x20, x20, 1048
.LBB264:
.LBB265:
	.loc 3 608 0
#APP
// 608 "include/asm-generic/io.h" 1
	dmb ishst
// 0 "" 2
#NO_APP
	bl	rtk_bus_sync
.LBE265:
.LBE264:
	.loc 1 151 0
	and	w19, w19, -262145
.LBB269:
.LBB268:
.LBB266:
.LBB267:
	.loc 2 55 0
#APP
// 55 "./arch/arm64/include/asm/io.h" 1
	str w19, [x20]
// 0 "" 2
#NO_APP
.LBE267:
.LBE266:
.LBE268:
.LBE269:
	.loc 1 155 0
	mov	w0, -1
	b	.L13
.L12:
	.loc 1 161 0
	adrp	x0, rtl_hwnat_mmio
	ldr	x19, [x0, #:lo12:rtl_hwnat_mmio]
	add	x19, x19, 1458176
	add	x19, x19, 1048
.LBB270:
.LBB271:
.LBB272:
.LBB273:
.LBB274:
	.loc 2 91 0
#APP
// 91 "./arch/arm64/include/asm/io.h" 1
	.if (1 || 0) == 1
661:
	ldr w19, [x19]
662:
.pushsection .altinstructions,"a"
 .word 661b - .
 .word 663f - .
 .hword 1
 .byte 662b-661b
 .byte 664f-663f
.popsection
.pushsection .altinstr_replacement, "a"
663:
	ldar w19, [x19]
664:
	.popsection
	.org	. - (664b-663b) + (662b-661b)
	.org	. - (662b-661b) + (664b-663b)
.endif

// 0 "" 2
#NO_APP
.LBE274:
.LBE273:
.LBE272:
	.loc 3 584 0
#APP
// 584 "include/asm-generic/io.h" 1
	dsb ld
// 0 "" 2
#NO_APP
.LBE271:
.LBE270:
	.loc 1 161 0
	ldr	x20, [x0, #:lo12:rtl_hwnat_mmio]
	add	x20, x20, 1458176
	add	x20, x20, 1048
.LBB275:
.LBB276:
	.loc 3 608 0
#APP
// 608 "include/asm-generic/io.h" 1
	dmb ishst
// 0 "" 2
#NO_APP
	bl	rtk_bus_sync
.LBE276:
.LBE275:
	.loc 1 161 0
	and	w19, w19, -262145
.LBB280:
.LBB279:
.LBB277:
.LBB278:
	.loc 2 55 0
#APP
// 55 "./arch/arm64/include/asm/io.h" 1
	str w19, [x20]
// 0 "" 2
#NO_APP
.LBE278:
.LBE277:
.LBE279:
.LBE280:
	.loc 1 165 0
	mov	w0, 0
.L13:
	.loc 1 166 0
	ldp	x19, x20, [sp, 16]
	ldp	x29, x30, [sp], 32
	.cfi_restore 30
	.cfi_restore 29
	.cfi_restore 19
	.cfi_restore 20
	.cfi_def_cfa 31, 0
	ret
	.cfi_endproc
.LFE1454:
	.size	_rtl8651_addAsicEntry, .-_rtl8651_addAsicEntry
	.align	2
	.global	_rtl865x_getForceAddMcastOpCnt
	.type	_rtl865x_getForceAddMcastOpCnt, %function
_rtl865x_getForceAddMcastOpCnt:
.LFB1455:
	.loc 1 172 0
	.cfi_startproc
	.loc 1 174 0
	adrp	x0, .LANCHOR1
	ldr	w0, [x0, #:lo12:.LANCHOR1]
	ret
	.cfi_endproc
.LFE1455:
	.size	_rtl865x_getForceAddMcastOpCnt, .-_rtl865x_getForceAddMcastOpCnt
	.align	2
	.global	_rtl8198C_getForceAddMcastv6OpCnt
	.type	_rtl8198C_getForceAddMcastv6OpCnt, %function
_rtl8198C_getForceAddMcastv6OpCnt:
.LFB1456:
	.loc 1 177 0
	.cfi_startproc
	.loc 1 179 0
	adrp	x0, .LANCHOR1+4
	ldr	w0, [x0, #:lo12:.LANCHOR1+4]
	ret
	.cfi_endproc
.LFE1456:
	.size	_rtl8198C_getForceAddMcastv6OpCnt, .-_rtl8198C_getForceAddMcastv6OpCnt
	.align	2
	.global	_rtl8651_forceAddAsicEntry
	.type	_rtl8651_forceAddAsicEntry, %function
_rtl8651_forceAddAsicEntry:
.LFB1457:
	.loc 1 182 0
	.cfi_startproc
	stp	x29, x30, [sp, -64]!
	.cfi_def_cfa_offset 64
	.cfi_offset 29, -64
	.cfi_offset 30, -56
	add	x29, sp, 0
	.cfi_def_cfa_register 29
	stp	x19, x20, [sp, 16]
	stp	x21, x22, [sp, 32]
	str	x23, [sp, 48]
	.cfi_offset 19, -48
	.cfi_offset 20, -40
	.cfi_offset 21, -32
	.cfi_offset 22, -24
	.cfi_offset 23, -16
	mov	w20, w0
	mov	w21, w1
	mov	x22, x2
	.loc 1 183 0
	cmp	w0, 3
	bne	.L19
	.loc 1 185 0
	adrp	x1, .LANCHOR1
	ldr	w0, [x1, #:lo12:.LANCHOR1]
	add	w0, w0, 1
	str	w0, [x1, #:lo12:.LANCHOR1]
	b	.L20
.L19:
	.loc 1 188 0
	cmp	w0, 21
	bne	.L20
	.loc 1 190 0
	adrp	x0, .LANCHOR1
	add	x0, x0, :lo12:.LANCHOR1
	ldr	w1, [x0, 4]
	add	w1, w1, 1
	str	w1, [x0, 4]
.L20:
	.loc 1 196 0
	adrp	x0, rtl_hwnat_mmio
	ldr	x19, [x0, #:lo12:rtl_hwnat_mmio]
	add	x19, x19, 1458176
	add	x19, x19, 1048
.LBB281:
.LBB282:
.LBB283:
.LBB284:
.LBB285:
	.loc 2 91 0
#APP
// 91 "./arch/arm64/include/asm/io.h" 1
	.if (1 || 0) == 1
661:
	ldr w19, [x19]
662:
.pushsection .altinstructions,"a"
 .word 661b - .
 .word 663f - .
 .hword 1
 .byte 662b-661b
 .byte 664f-663f
.popsection
.pushsection .altinstr_replacement, "a"
663:
	ldar w19, [x19]
664:
	.popsection
	.org	. - (664b-663b) + (662b-661b)
	.org	. - (662b-661b) + (664b-663b)
.endif

// 0 "" 2
#NO_APP
.LBE285:
.LBE284:
.LBE283:
	.loc 3 584 0
#APP
// 584 "include/asm-generic/io.h" 1
	dsb ld
// 0 "" 2
#NO_APP
.LBE282:
.LBE281:
	.loc 1 196 0
	ldr	x23, [x0, #:lo12:rtl_hwnat_mmio]
	add	x23, x23, 1458176
	add	x23, x23, 1048
.LBB286:
.LBB287:
	.loc 3 608 0
#APP
// 608 "include/asm-generic/io.h" 1
	dmb ishst
// 0 "" 2
#NO_APP
	bl	rtk_bus_sync
.LBE287:
.LBE286:
	.loc 1 196 0
	orr	w19, w19, 262144
.LBB291:
.LBB290:
.LBB288:
.LBB289:
	.loc 2 55 0
#APP
// 55 "./arch/arm64/include/asm/io.h" 1
	str w19, [x23]
// 0 "" 2
#NO_APP
.LBE289:
.LBE288:
.LBE290:
.LBE291:
	.loc 1 197 0
	adrp	x1, rtl_hwnat_mmio
.L21:
	.loc 1 197 0 is_stmt 0 discriminator 1
	ldr	x0, [x1, #:lo12:rtl_hwnat_mmio]
	add	x0, x0, 1458176
	add	x0, x0, 1048
.LBB292:
.LBB293:
.LBB294:
.LBB295:
.LBB296:
	.loc 2 91 0 is_stmt 1 discriminator 1
#APP
// 91 "./arch/arm64/include/asm/io.h" 1
	.if (1 || 0) == 1
661:
	ldr w0, [x0]
662:
.pushsection .altinstructions,"a"
 .word 661b - .
 .word 663f - .
 .hword 1
 .byte 662b-661b
 .byte 664f-663f
.popsection
.pushsection .altinstr_replacement, "a"
663:
	ldar w0, [x0]
664:
	.popsection
	.org	. - (664b-663b) + (662b-661b)
	.org	. - (662b-661b) + (664b-663b)
.endif

// 0 "" 2
#NO_APP
.LBE296:
.LBE295:
.LBE294:
	.loc 3 584 0 discriminator 1
#APP
// 584 "include/asm-generic/io.h" 1
	dsb ld
// 0 "" 2
#NO_APP
.LBE293:
.LBE292:
	.loc 1 197 0 discriminator 1
	tbz	x0, 19, .L21
	.loc 1 201 0
	mov	x2, x22
	mov	w1, w21
	mov	w0, w20
	bl	_rtl8651_asicTableAccessForward
	.loc 1 203 0
	adrp	x0, rtl_hwnat_mmio
	ldr	x19, [x0, #:lo12:rtl_hwnat_mmio]
	add	x19, x19, 1458176
	add	x19, x19, 3328
.LBB297:
.LBB298:
	.loc 3 608 0
#APP
// 608 "include/asm-generic/io.h" 1
	dmb ishst
// 0 "" 2
#NO_APP
	bl	rtk_bus_sync
.LBB299:
.LBB300:
	.loc 2 55 0
	mov	w0, 9
#APP
// 55 "./arch/arm64/include/asm/io.h" 1
	str w0, [x19]
// 0 "" 2
#NO_APP
.LBE300:
.LBE299:
.LBE298:
.LBE297:
	.loc 1 204 0
	adrp	x1, rtl_hwnat_mmio
.L22:
	.loc 1 204 0 is_stmt 0 discriminator 1
	ldr	x0, [x1, #:lo12:rtl_hwnat_mmio]
	add	x0, x0, 1458176
	add	x0, x0, 3328
.LBB301:
.LBB302:
.LBB303:
.LBB304:
.LBB305:
	.loc 2 91 0 is_stmt 1 discriminator 1
#APP
// 91 "./arch/arm64/include/asm/io.h" 1
	.if (1 || 0) == 1
661:
	ldr w0, [x0]
662:
.pushsection .altinstructions,"a"
 .word 661b - .
 .word 663f - .
 .hword 1
 .byte 662b-661b
 .byte 664f-663f
.popsection
.pushsection .altinstr_replacement, "a"
663:
	ldar w0, [x0]
664:
	.popsection
	.org	. - (664b-663b) + (662b-661b)
	.org	. - (662b-661b) + (664b-663b)
.endif

// 0 "" 2
#NO_APP
.LBE305:
.LBE304:
.LBE303:
	.loc 3 584 0 discriminator 1
#APP
// 584 "include/asm-generic/io.h" 1
	dsb ld
// 0 "" 2
#NO_APP
.LBE302:
.LBE301:
	.loc 1 204 0 discriminator 1
	tbnz	x0, 0, .L22
	.loc 1 209 0
	adrp	x0, rtl_hwnat_mmio
	ldr	x19, [x0, #:lo12:rtl_hwnat_mmio]
	add	x19, x19, 1458176
	add	x19, x19, 1048
.LBB306:
.LBB307:
.LBB308:
.LBB309:
.LBB310:
	.loc 2 91 0
#APP
// 91 "./arch/arm64/include/asm/io.h" 1
	.if (1 || 0) == 1
661:
	ldr w19, [x19]
662:
.pushsection .altinstructions,"a"
 .word 661b - .
 .word 663f - .
 .hword 1
 .byte 662b-661b
 .byte 664f-663f
.popsection
.pushsection .altinstr_replacement, "a"
663:
	ldar w19, [x19]
664:
	.popsection
	.org	. - (664b-663b) + (662b-661b)
	.org	. - (662b-661b) + (664b-663b)
.endif

// 0 "" 2
#NO_APP
.LBE310:
.LBE309:
.LBE308:
	.loc 3 584 0
#APP
// 584 "include/asm-generic/io.h" 1
	dsb ld
// 0 "" 2
#NO_APP
.LBE307:
.LBE306:
	.loc 1 209 0
	ldr	x20, [x0, #:lo12:rtl_hwnat_mmio]
	add	x20, x20, 1458176
	add	x20, x20, 1048
.LBB311:
.LBB312:
	.loc 3 608 0
#APP
// 608 "include/asm-generic/io.h" 1
	dmb ishst
// 0 "" 2
#NO_APP
	bl	rtk_bus_sync
.LBE312:
.LBE311:
	.loc 1 209 0
	and	w19, w19, -262145
.LBB316:
.LBB315:
.LBB313:
.LBB314:
	.loc 2 55 0
#APP
// 55 "./arch/arm64/include/asm/io.h" 1
	str w19, [x20]
// 0 "" 2
#NO_APP
.LBE314:
.LBE313:
.LBE315:
.LBE316:
	.loc 1 214 0
	mov	w0, 0
	ldp	x19, x20, [sp, 16]
	ldp	x21, x22, [sp, 32]
	ldr	x23, [sp, 48]
	ldp	x29, x30, [sp], 64
	.cfi_restore 30
	.cfi_restore 29
	.cfi_restore 23
	.cfi_restore 21
	.cfi_restore 22
	.cfi_restore 19
	.cfi_restore 20
	.cfi_def_cfa 31, 0
	ret
	.cfi_endproc
.LFE1457:
	.size	_rtl8651_forceAddAsicEntry, .-_rtl8651_forceAddAsicEntry
	.align	2
	.global	_rtl8651_readAsicEntry
	.type	_rtl8651_readAsicEntry, %function
_rtl8651_readAsicEntry:
.LFB1458:
	.loc 1 223 0
	.cfi_startproc
	stp	x29, x30, [sp, -112]!
	.cfi_def_cfa_offset 112
	.cfi_offset 29, -112
	.cfi_offset 30, -104
	add	x29, sp, 0
	.cfi_def_cfa_register 29
	.loc 1 246 0
	cbnz	x2, .L26
	.loc 1 246 0 is_stmt 0 discriminator 1
	mov	w2, 246
	adrp	x1, .LC0
	add	x1, x1, :lo12:.LC0
	adrp	x0, .LC1
	add	x0, x0, :lo12:.LC1
	bl	printk
.L27:
	b	.L27
.L26:
	.loc 1 249 0 is_stmt 1
	ubfiz	x1, x1, 5, 27
	adrp	x3, rtl_hwnat_mmio
	ldr	x4, [x3, #:lo12:rtl_hwnat_mmio]
	add	x4, x4, x1
	ubfiz	x5, x0, 16, 16
	add	x7, x4, x5
.L28:
	.loc 1 257 0 discriminator 1
	ldr	x1, [x3, #:lo12:rtl_hwnat_mmio]
	add	x1, x1, 1458176
	add	x1, x1, 3328
.LBB317:
.LBB318:
.LBB319:
.LBB320:
.LBB321:
	.loc 2 91 0 discriminator 1
#APP
// 91 "./arch/arm64/include/asm/io.h" 1
	.if (1 || 0) == 1
661:
	ldr w1, [x1]
662:
.pushsection .altinstructions,"a"
 .word 661b - .
 .word 663f - .
 .hword 1
 .byte 662b-661b
 .byte 664f-663f
.popsection
.pushsection .altinstr_replacement, "a"
663:
	ldar w1, [x1]
664:
	.popsection
	.org	. - (664b-663b) + (662b-661b)
	.org	. - (662b-661b) + (664b-663b)
.endif

// 0 "" 2
#NO_APP
.LBE321:
.LBE320:
.LBE319:
	.loc 3 584 0 discriminator 1
#APP
// 584 "include/asm-generic/io.h" 1
	dsb ld
// 0 "" 2
#NO_APP
.LBE318:
.LBE317:
	.loc 1 257 0 discriminator 1
	tbnz	x1, 0, .L28
	.loc 1 266 0
	ldr	w17, [x4, x5]
	.loc 1 267 0
	ldr	w16, [x7, 4]
	.loc 1 268 0
	ldr	w15, [x7, 8]
	.loc 1 269 0
	ldr	w14, [x7, 12]
	.loc 1 270 0
	ldr	w13, [x7, 16]
	.loc 1 271 0
	ldr	w12, [x7, 20]
	.loc 1 272 0
	ldr	w11, [x7, 24]
	.loc 1 273 0
	ldr	w10, [x7, 28]
	.loc 1 275 0
	adrp	x1, .LANCHOR0
	add	x1, x1, :lo12:.LANCHOR0
	ldr	w9, [x1, w0, uxtw 2]
	mov	w18, 10
	add	x8, x29, 112
	.loc 1 287 0
	add	x7, x7, 32768
	add	x5, x29, 64
.L35:
	add	x6, x29, 24
	.loc 1 275 0
	mov	x1, x6
.L30:
	.loc 1 266 0
	str	w17, [x1]
	.loc 1 267 0
	str	w16, [x1, 4]
	.loc 1 268 0
	str	w15, [x1, 8]
	.loc 1 269 0
	str	w14, [x1, 12]
	.loc 1 270 0
	str	w13, [x1, 16]
	.loc 1 271 0
	str	w12, [x1, 20]
	.loc 1 272 0
	str	w11, [x1, 24]
	.loc 1 273 0
	str	w10, [x1, 28]
	.loc 1 275 0
	cmp	w9, 8
	bls	.L29
	.loc 1 287 0
	ldr	w3, [x7]
	str	w3, [x1, 32]
	.loc 1 288 0
	ldr	w3, [x7, 4]
	str	w3, [x1, 36]
	.loc 1 289 0
	ldr	w3, [x7, 8]
	str	w3, [x1, 40]
.L29:
	add	x1, x1, 44
	.loc 1 262 0
	cmp	x1, x8
	bne	.L30
	b	.L43
.L33:
.LBB322:
	.loc 1 306 0
	ldr	w4, [x1, 48]
	ldr	w3, [x1, 4]
	cmp	w4, w3
	bne	.L32
	add	x1, x1, 4
	.loc 1 304 0 discriminator 2
	cmp	x1, x5
	bne	.L33
	b	.L34
.L43:
	.loc 1 306 0 discriminator 1
	ldr	w1, [x29, 24]
	ldr	w3, [x29, 68]
	cmp	w3, w1
	bne	.L32
	.loc 1 306 0 is_stmt 0
	add	x1, x29, 24
	b	.L33
.L32:
.LBE322:
	.loc 1 317 0 is_stmt 1
	subs	w18, w18, #1
	bne	.L35
.L34:
	.loc 1 325 0 discriminator 1
	adrp	x1, .LANCHOR0
	add	x1, x1, :lo12:.LANCHOR0
	ldr	w3, [x1, w0, uxtw 2]
	cbz	w3, .L36
	.loc 1 325 0 is_stmt 0
	mov	x0, 0
.L37:
	.loc 1 327 0 is_stmt 1 discriminator 3
	ldr	w1, [x6, 44]
	str	w1, [x2, x0, lsl 2]
	add	x0, x0, 1
	add	x6, x6, 4
	.loc 1 325 0 discriminator 3
	cmp	w3, w0
	bhi	.L37
.L36:
	.loc 1 388 0
	mov	w0, 0
	ldp	x29, x30, [sp], 112
	.cfi_restore 30
	.cfi_restore 29
	.cfi_def_cfa 31, 0
	ret
	.cfi_endproc
.LFE1458:
	.size	_rtl8651_readAsicEntry, .-_rtl8651_readAsicEntry
	.align	2
	.global	_rtl8651_readAsicEntryStopTLU
	.type	_rtl8651_readAsicEntryStopTLU, %function
_rtl8651_readAsicEntryStopTLU:
.LFB1459:
	.loc 1 391 0
	.cfi_startproc
	stp	x29, x30, [sp, -64]!
	.cfi_def_cfa_offset 64
	.cfi_offset 29, -64
	.cfi_offset 30, -56
	add	x29, sp, 0
	.cfi_def_cfa_register 29
	stp	x19, x20, [sp, 16]
	stp	x21, x22, [sp, 32]
	str	x23, [sp, 48]
	.cfi_offset 19, -48
	.cfi_offset 20, -40
	.cfi_offset 21, -32
	.cfi_offset 22, -24
	.cfi_offset 23, -16
	mov	w23, w0
	mov	x20, x2
	.loc 1 395 0
	cbnz	x2, .L45
	.loc 1 395 0 is_stmt 0 discriminator 1
	mov	w2, 395
	adrp	x1, .LC0
	add	x1, x1, :lo12:.LC0
	adrp	x0, .LC1
	add	x0, x0, :lo12:.LC1
	bl	printk
.L46:
	b	.L46
.L45:
	.loc 1 398 0 is_stmt 1
	adrp	x2, rtl_hwnat_mmio
	ldr	x0, [x2, #:lo12:rtl_hwnat_mmio]
	ubfiz	x1, x1, 5, 27
	add	x1, x1, x0
	ubfiz	x19, x23, 16, 16
	add	x19, x1, x19
	.loc 1 411 0
	add	x21, x0, 1458176
	add	x21, x21, 1048
.LBB323:
.LBB324:
.LBB325:
.LBB326:
.LBB327:
	.loc 2 91 0
#APP
// 91 "./arch/arm64/include/asm/io.h" 1
	.if (1 || 0) == 1
661:
	ldr w21, [x21]
662:
.pushsection .altinstructions,"a"
 .word 661b - .
 .word 663f - .
 .hword 1
 .byte 662b-661b
 .byte 664f-663f
.popsection
.pushsection .altinstr_replacement, "a"
663:
	ldar w21, [x21]
664:
	.popsection
	.org	. - (664b-663b) + (662b-661b)
	.org	. - (662b-661b) + (664b-663b)
.endif

// 0 "" 2
#NO_APP
.LBE327:
.LBE326:
.LBE325:
	.loc 3 584 0
#APP
// 584 "include/asm-generic/io.h" 1
	dsb ld
// 0 "" 2
#NO_APP
.LBE324:
.LBE323:
	.loc 1 411 0
	ldr	x22, [x2, #:lo12:rtl_hwnat_mmio]
	add	x22, x22, 1458176
	add	x22, x22, 1048
.LBB328:
.LBB329:
	.loc 3 608 0
#APP
// 608 "include/asm-generic/io.h" 1
	dmb ishst
// 0 "" 2
#NO_APP
	bl	rtk_bus_sync
.LBE329:
.LBE328:
	.loc 1 411 0
	orr	w21, w21, 262144
.LBB333:
.LBB332:
.LBB330:
.LBB331:
	.loc 2 55 0
#APP
// 55 "./arch/arm64/include/asm/io.h" 1
	str w21, [x22]
// 0 "" 2
#NO_APP
.LBE331:
.LBE330:
.LBE332:
.LBE333:
.LBB334:
	.loc 1 421 0
	adrp	x0, .LANCHOR0
	add	x0, x0, :lo12:.LANCHOR0
	ldr	w0, [x0, w23, uxtw 2]
	cbz	w0, .L47
	mov	w0, 0
	adrp	x1, .LANCHOR0
	add	x1, x1, :lo12:.LANCHOR0
	ldr	w2, [x1, w23, uxtw 2]
.L50:
	.loc 1 425 0
	cmp	w0, 7
	bhi	.L48
	.loc 1 426 0
	add	x1, x19, x0, uxtw 2
.LBB335:
.LBB336:
.LBB337:
.LBB338:
.LBB339:
	.loc 2 91 0
#APP
// 91 "./arch/arm64/include/asm/io.h" 1
	.if (1 || 0) == 1
661:
	ldr w1, [x1]
662:
.pushsection .altinstructions,"a"
 .word 661b - .
 .word 663f - .
 .hword 1
 .byte 662b-661b
 .byte 664f-663f
.popsection
.pushsection .altinstr_replacement, "a"
663:
	ldar w1, [x1]
664:
	.popsection
	.org	. - (664b-663b) + (662b-661b)
	.org	. - (662b-661b) + (664b-663b)
.endif

// 0 "" 2
#NO_APP
.LBE339:
.LBE338:
.LBE337:
	.loc 3 584 0
#APP
// 584 "include/asm-generic/io.h" 1
	dsb ld
// 0 "" 2
#NO_APP
.LBE336:
.LBE335:
	.loc 1 426 0
	str	w1, [x20, w0, uxtw 2]
	b	.L49
.L48:
	.loc 1 428 0
	ubfiz	x1, x0, 2, 32
	add	x1, x1, 28672
	add	x1, x1, 4064
	add	x1, x19, x1
.LBB340:
.LBB341:
.LBB342:
.LBB343:
.LBB344:
	.loc 2 91 0
#APP
// 91 "./arch/arm64/include/asm/io.h" 1
	.if (1 || 0) == 1
661:
	ldr w1, [x1]
662:
.pushsection .altinstructions,"a"
 .word 661b - .
 .word 663f - .
 .hword 1
 .byte 662b-661b
 .byte 664f-663f
.popsection
.pushsection .altinstr_replacement, "a"
663:
	ldar w1, [x1]
664:
	.popsection
	.org	. - (664b-663b) + (662b-661b)
	.org	. - (662b-661b) + (664b-663b)
.endif

// 0 "" 2
#NO_APP
.LBE344:
.LBE343:
.LBE342:
	.loc 3 584 0
#APP
// 584 "include/asm-generic/io.h" 1
	dsb ld
// 0 "" 2
#NO_APP
.LBE341:
.LBE340:
	.loc 1 428 0
	str	w1, [x20, w0, uxtw 2]
.L49:
	.loc 1 421 0 discriminator 2
	add	w0, w0, 1
	cmp	w2, w0
	bhi	.L50
.L47:
.LBE334:
	.loc 1 464 0
	adrp	x0, rtl_hwnat_mmio
	ldr	x19, [x0, #:lo12:rtl_hwnat_mmio]
	add	x19, x19, 1458176
	add	x19, x19, 1048
.LBB345:
.LBB346:
.LBB347:
.LBB348:
.LBB349:
	.loc 2 91 0
#APP
// 91 "./arch/arm64/include/asm/io.h" 1
	.if (1 || 0) == 1
661:
	ldr w19, [x19]
662:
.pushsection .altinstructions,"a"
 .word 661b - .
 .word 663f - .
 .hword 1
 .byte 662b-661b
 .byte 664f-663f
.popsection
.pushsection .altinstr_replacement, "a"
663:
	ldar w19, [x19]
664:
	.popsection
	.org	. - (664b-663b) + (662b-661b)
	.org	. - (662b-661b) + (664b-663b)
.endif

// 0 "" 2
#NO_APP
.LBE349:
.LBE348:
.LBE347:
	.loc 3 584 0
#APP
// 584 "include/asm-generic/io.h" 1
	dsb ld
// 0 "" 2
#NO_APP
.LBE346:
.LBE345:
	.loc 1 464 0
	ldr	x20, [x0, #:lo12:rtl_hwnat_mmio]
	add	x20, x20, 1458176
	add	x20, x20, 1048
.LBB350:
.LBB351:
	.loc 3 608 0
#APP
// 608 "include/asm-generic/io.h" 1
	dmb ishst
// 0 "" 2
#NO_APP
	bl	rtk_bus_sync
.LBE351:
.LBE350:
	.loc 1 464 0
	and	w19, w19, -262145
.LBB355:
.LBB354:
.LBB352:
.LBB353:
	.loc 2 55 0
#APP
// 55 "./arch/arm64/include/asm/io.h" 1
	str w19, [x20]
// 0 "" 2
#NO_APP
.LBE353:
.LBE352:
.LBE354:
.LBE355:
	.loc 1 475 0
	mov	w0, 0
	ldp	x19, x20, [sp, 16]
	ldp	x21, x22, [sp, 32]
	ldr	x23, [sp, 48]
	ldp	x29, x30, [sp], 64
	.cfi_restore 30
	.cfi_restore 29
	.cfi_restore 23
	.cfi_restore 21
	.cfi_restore 22
	.cfi_restore 19
	.cfi_restore 20
	.cfi_def_cfa 31, 0
	ret
	.cfi_endproc
.LFE1459:
	.size	_rtl8651_readAsicEntryStopTLU, .-_rtl8651_readAsicEntryStopTLU
	.align	2
	.global	_rtl8651_delAsicEntry
	.type	_rtl8651_delAsicEntry, %function
_rtl8651_delAsicEntry:
.LFB1460:
	.loc 1 478 0
	.cfi_startproc
	stp	x29, x30, [sp, -96]!
	.cfi_def_cfa_offset 96
	.cfi_offset 29, -96
	.cfi_offset 30, -88
	add	x29, sp, 0
	.cfi_def_cfa_register 29
	stp	x19, x20, [sp, 16]
	stp	x21, x22, [sp, 32]
	stp	x23, x24, [sp, 48]
	stp	x25, x26, [sp, 64]
	str	x27, [sp, 80]
	.cfi_offset 19, -80
	.cfi_offset 20, -72
	.cfi_offset 21, -64
	.cfi_offset 22, -56
	.cfi_offset 23, -48
	.cfi_offset 24, -40
	.cfi_offset 25, -32
	.cfi_offset 26, -24
	.cfi_offset 27, -16
	mov	w22, w0
	mov	w20, w1
	mov	w24, w2
	.loc 1 481 0
	adrp	x1, rtl_hwnat_mmio
.L53:
	.loc 1 481 0 is_stmt 0 discriminator 1
	ldr	x0, [x1, #:lo12:rtl_hwnat_mmio]
	add	x0, x0, 1458176
	add	x0, x0, 3328
.LBB356:
.LBB357:
.LBB358:
.LBB359:
.LBB360:
	.loc 2 91 0 is_stmt 1 discriminator 1
#APP
// 91 "./arch/arm64/include/asm/io.h" 1
	.if (1 || 0) == 1
661:
	ldr w0, [x0]
662:
.pushsection .altinstructions,"a"
 .word 661b - .
 .word 663f - .
 .hword 1
 .byte 662b-661b
 .byte 664f-663f
.popsection
.pushsection .altinstr_replacement, "a"
663:
	ldar w0, [x0]
664:
	.popsection
	.org	. - (664b-663b) + (662b-661b)
	.org	. - (662b-661b) + (664b-663b)
.endif

// 0 "" 2
#NO_APP
.LBE360:
.LBE359:
.LBE358:
	.loc 3 584 0 discriminator 1
#APP
// 584 "include/asm-generic/io.h" 1
	dsb ld
// 0 "" 2
#NO_APP
.LBE357:
.LBE356:
	.loc 1 481 0 discriminator 1
	tbnz	x0, 0, .L53
.LBB361:
	.loc 1 487 0 discriminator 1
	adrp	x0, .LANCHOR0
	add	x0, x0, :lo12:.LANCHOR0
	ldr	w0, [x0, w22, uxtw 2]
	cbz	w0, .L54
	.loc 1 487 0 is_stmt 0
	mov	w19, 0
	.loc 1 489 0 is_stmt 1
	adrp	x26, rtl_hwnat_mmio
.LBB362:
.LBB363:
.LBB364:
.LBB365:
	.loc 2 55 0
	mov	w25, 0
.LBE365:
.LBE364:
.LBE363:
.LBE362:
	.loc 1 487 0
	adrp	x23, .LANCHOR0
	uxtw	x21, w22
.L55:
	ldr	x0, [x26, #:lo12:rtl_hwnat_mmio]
	add	x0, x0, 1458176
	add	x0, x0, 3360
	.loc 1 489 0 discriminator 3
	ubfiz	x27, x19, 2, 30
	add	x27, x0, x27
.LBB369:
.LBB368:
	.loc 3 608 0 discriminator 3
#APP
// 608 "include/asm-generic/io.h" 1
	dmb ishst
// 0 "" 2
#NO_APP
	bl	rtk_bus_sync
.LBB367:
.LBB366:
	.loc 2 55 0 discriminator 3
#APP
// 55 "./arch/arm64/include/asm/io.h" 1
	str w25, [x27]
// 0 "" 2
#NO_APP
.LBE366:
.LBE367:
.LBE368:
.LBE369:
	.loc 1 487 0 discriminator 3
	add	w19, w19, 1
	add	x0, x23, :lo12:.LANCHOR0
	ldr	w0, [x0, x21, lsl 2]
	cmp	w0, w19
	bhi	.L55
.L54:
.LBE361:
	.loc 1 513 0
	cmp	w20, w24
	bhi	.L59
	.loc 1 515 0
	lsl	w22, w22, 16
	lsl	w21, w20, 5
	adrp	x23, rtl_hwnat_base
	add	x23, x23, :lo12:rtl_hwnat_base
	adrp	x19, rtl_hwnat_mmio
.LBB370:
.LBB371:
.LBB372:
.LBB373:
	.loc 2 55 0
	mov	w25, 9
.L58:
.LBE373:
.LBE372:
.LBE371:
.LBE370:
	.loc 1 515 0
	ldr	w26, [x23]
	add	w26, w22, w26
	add	w26, w21, w26
	ldr	x27, [x19, #:lo12:rtl_hwnat_mmio]
	add	x27, x27, 1458176
	add	x27, x27, 3336
.LBB377:
.LBB378:
	.loc 3 608 0
#APP
// 608 "include/asm-generic/io.h" 1
	dmb ishst
// 0 "" 2
#NO_APP
	bl	rtk_bus_sync
.LBB379:
.LBB380:
	.loc 2 55 0
#APP
// 55 "./arch/arm64/include/asm/io.h" 1
	str w26, [x27]
// 0 "" 2
#NO_APP
.LBE380:
.LBE379:
.LBE378:
.LBE377:
	.loc 1 520 0
	ldr	x26, [x19, #:lo12:rtl_hwnat_mmio]
	add	x26, x26, 1458176
	add	x26, x26, 3328
.LBB381:
.LBB376:
	.loc 3 608 0
#APP
// 608 "include/asm-generic/io.h" 1
	dmb ishst
// 0 "" 2
#NO_APP
	bl	rtk_bus_sync
.LBB375:
.LBB374:
	.loc 2 55 0
#APP
// 55 "./arch/arm64/include/asm/io.h" 1
	str w25, [x26]
// 0 "" 2
#NO_APP
.L57:
.LBE374:
.LBE375:
.LBE376:
.LBE381:
	.loc 1 522 0 discriminator 1
	ldr	x0, [x19, #:lo12:rtl_hwnat_mmio]
	add	x0, x0, 1458176
	add	x0, x0, 3328
.LBB382:
.LBB383:
.LBB384:
.LBB385:
.LBB386:
	.loc 2 91 0 discriminator 1
#APP
// 91 "./arch/arm64/include/asm/io.h" 1
	.if (1 || 0) == 1
661:
	ldr w0, [x0]
662:
.pushsection .altinstructions,"a"
 .word 661b - .
 .word 663f - .
 .hword 1
 .byte 662b-661b
 .byte 664f-663f
.popsection
.pushsection .altinstr_replacement, "a"
663:
	ldar w0, [x0]
664:
	.popsection
	.org	. - (664b-663b) + (662b-661b)
	.org	. - (662b-661b) + (664b-663b)
.endif

// 0 "" 2
#NO_APP
.LBE386:
.LBE385:
.LBE384:
	.loc 3 584 0 discriminator 1
#APP
// 584 "include/asm-generic/io.h" 1
	dsb ld
// 0 "" 2
#NO_APP
.LBE383:
.LBE382:
	.loc 1 522 0 discriminator 1
	tbnz	x0, 0, .L57
	.loc 1 524 0
	ldr	x0, [x19, #:lo12:rtl_hwnat_mmio]
	add	x0, x0, 1458176
	add	x0, x0, 3332
.LBB387:
.LBB388:
.LBB389:
.LBB390:
.LBB391:
	.loc 2 91 0
#APP
// 91 "./arch/arm64/include/asm/io.h" 1
	.if (1 || 0) == 1
661:
	ldr w0, [x0]
662:
.pushsection .altinstructions,"a"
 .word 661b - .
 .word 663f - .
 .hword 1
 .byte 662b-661b
 .byte 664f-663f
.popsection
.pushsection .altinstr_replacement, "a"
663:
	ldar w0, [x0]
664:
	.popsection
	.org	. - (664b-663b) + (662b-661b)
	.org	. - (662b-661b) + (664b-663b)
.endif

// 0 "" 2
#NO_APP
.LBE391:
.LBE390:
.LBE389:
	.loc 3 584 0
#APP
// 584 "include/asm-generic/io.h" 1
	dsb ld
// 0 "" 2
#NO_APP
.LBE388:
.LBE387:
	.loc 1 524 0
	tbnz	x0, 0, .L60
	.loc 1 527 0
	add	w20, w20, 1
	add	w21, w21, 32
	.loc 1 513 0
	cmp	w24, w20
	bcs	.L58
	.loc 1 529 0
	mov	w0, 0
	b	.L56
.L59:
	mov	w0, 0
	b	.L56
.L60:
	.loc 1 525 0
	mov	w0, -1
.L56:
	.loc 1 530 0
	ldp	x19, x20, [sp, 16]
	ldp	x21, x22, [sp, 32]
	ldp	x23, x24, [sp, 48]
	ldp	x25, x26, [sp, 64]
	ldr	x27, [sp, 80]
	ldp	x29, x30, [sp], 96
	.cfi_restore 30
	.cfi_restore 29
	.cfi_restore 27
	.cfi_restore 25
	.cfi_restore 26
	.cfi_restore 23
	.cfi_restore 24
	.cfi_restore 21
	.cfi_restore 22
	.cfi_restore 19
	.cfi_restore 20
	.cfi_def_cfa 31, 0
	ret
	.cfi_endproc
.LFE1460:
	.size	_rtl8651_delAsicEntry, .-_rtl8651_delAsicEntry
	.align	2
	.global	rtl819x_poll_sw
	.type	rtl819x_poll_sw, %function
rtl819x_poll_sw:
.LFB1461:
	.loc 1 538 0
	.cfi_startproc
	stp	x29, x30, [sp, -16]!
	.cfi_def_cfa_offset 16
	.cfi_offset 29, -16
	.cfi_offset 30, -8
	add	x29, sp, 0
	.cfi_def_cfa_register 29
.LBB392:
.LBB393:
.LBB394:
.LBB395:
.LBB396:
	.loc 2 91 0
	mov	x0, 24844
	movk	x0, 0xbb80, lsl 16
#APP
// 91 "./arch/arm64/include/asm/io.h" 1
	.if (1 || 0) == 1
661:
	ldr w4, [x0]
662:
.pushsection .altinstructions,"a"
 .word 661b - .
 .word 663f - .
 .hword 1
 .byte 662b-661b
 .byte 664f-663f
.popsection
.pushsection .altinstr_replacement, "a"
663:
	ldar w4, [x0]
664:
	.popsection
	.org	. - (664b-663b) + (662b-661b)
	.org	. - (662b-661b) + (664b-663b)
.endif

// 0 "" 2
#NO_APP
.LBE396:
.LBE395:
.LBE394:
	.loc 3 584 0
#APP
// 584 "include/asm-generic/io.h" 1
	dsb ld
// 0 "" 2
#NO_APP
.LBE393:
.LBE392:
.LBB397:
.LBB398:
.LBB399:
.LBB400:
.LBB401:
	.loc 2 91 0
	mov	x0, 4
	movk	x0, 0xb801, lsl 16
#APP
// 91 "./arch/arm64/include/asm/io.h" 1
	.if (1 || 0) == 1
661:
	ldr w1, [x0]
662:
.pushsection .altinstructions,"a"
 .word 661b - .
 .word 663f - .
 .hword 1
 .byte 662b-661b
 .byte 664f-663f
.popsection
.pushsection .altinstr_replacement, "a"
663:
	ldar w1, [x0]
664:
	.popsection
	.org	. - (664b-663b) + (662b-661b)
	.org	. - (662b-661b) + (664b-663b)
.endif

// 0 "" 2
#NO_APP
.LBE401:
.LBE400:
.LBE399:
	.loc 3 584 0
#APP
// 584 "include/asm-generic/io.h" 1
	dsb ld
// 0 "" 2
#NO_APP
.LBE398:
.LBE397:
.LBB402:
.LBB403:
.LBB404:
.LBB405:
.LBB406:
	.loc 2 91 0
	add	x0, x0, 28
#APP
// 91 "./arch/arm64/include/asm/io.h" 1
	.if (1 || 0) == 1
661:
	ldr w2, [x0]
662:
.pushsection .altinstructions,"a"
 .word 661b - .
 .word 663f - .
 .hword 1
 .byte 662b-661b
 .byte 664f-663f
.popsection
.pushsection .altinstr_replacement, "a"
663:
	ldar w2, [x0]
664:
	.popsection
	.org	. - (664b-663b) + (662b-661b)
	.org	. - (662b-661b) + (664b-663b)
.endif

// 0 "" 2
#NO_APP
.LBE406:
.LBE405:
.LBE404:
	.loc 3 584 0
#APP
// 584 "include/asm-generic/io.h" 1
	dsb ld
// 0 "" 2
#NO_APP
.LBE403:
.LBE402:
	.loc 1 543 0
	adrp	x0, .LANCHOR1
	add	x0, x0, :lo12:.LANCHOR1
	ldr	w3, [x0, 8]
	add	w5, w3, 1
	str	w5, [x0, 8]
	mov	w0, 52429
	movk	w0, 0xcccc, lsl 16
	umull	x0, w3, w0
	lsr	x0, x0, 32
	lsr	w0, w0, 4
	lsl	w5, w0, 4
	add	w0, w5, w0, lsl 2
	cmp	w3, w0
	bne	.L65
	.loc 1 540 0
	and	w0, w1, -4
	.loc 1 541 0
	and	w2, w2, -4
	.loc 1 547 0
	tbnz	x4, 16, .L67
	.loc 1 549 0
	adrp	x1, .LANCHOR1+12
	str	wzr, [x1, #:lo12:.LANCHOR1+12]
	b	.L68
.L67:
	.loc 1 554 0
	adrp	x1, .LANCHOR1+16
	ldr	w1, [x1, #:lo12:.LANCHOR1+16]
	cbz	w1, .L69
	.loc 1 554 0 is_stmt 0 discriminator 1
	adrp	x3, .LANCHOR1+20
	ldr	w3, [x3, #:lo12:.LANCHOR1+20]
	cbnz	w3, .L70
.L69:
	.loc 1 558 0 is_stmt 1
	adrp	x1, .LANCHOR1+12
	str	wzr, [x1, #:lo12:.LANCHOR1+12]
	b	.L68
.L70:
	.loc 1 562 0 discriminator 1
	cmp	w0, w3
	bne	.L71
	cmp	w2, w1
	bne	.L71
	.loc 1 564 0
	adrp	x1, .LANCHOR1
	add	x1, x1, :lo12:.LANCHOR1
	ldr	w3, [x1, 12]
	add	w3, w3, 1
	str	w3, [x1, 12]
	b	.L68
.L71:
	.loc 1 568 0
	adrp	x1, .LANCHOR1+12
	str	wzr, [x1, #:lo12:.LANCHOR1+12]
.L68:
	.loc 1 576 0
	adrp	x1, .LANCHOR1
	add	x1, x1, :lo12:.LANCHOR1
	str	w0, [x1, 20]
	.loc 1 577 0
	str	w2, [x1, 16]
	.loc 1 579 0
	ldr	w0, [x1, 12]
	cmp	w0, 2
	bls	.L65
	.loc 1 581 0
	adrp	x0, .LANCHOR1+12
	str	wzr, [x0, #:lo12:.LANCHOR1+12]
	.loc 1 582 0
	adrp	x0, .LC2
	add	x0, x0, :lo12:.LC2
	bl	printk
	.loc 1 583 0
	mov	x0, 0
	bl	machine_restart
.L65:
	.loc 1 589 0
	ldp	x29, x30, [sp], 16
	.cfi_restore 30
	.cfi_restore 29
	.cfi_def_cfa 31, 0
	ret
	.cfi_endproc
.LFE1461:
	.size	rtl819x_poll_sw, .-rtl819x_poll_sw
	.section	.rodata
	.align	3
.LANCHOR0 = . + 0
	.type	_rtl8651_asicTableSize, %object
	.size	_rtl8651_asicTableSize, 88
_rtl8651_asicTableSize:
	.word	2
	.word	1
	.word	3
	.word	3
	.word	5
	.word	3
	.word	3
	.word	3
	.word	4
	.word	3
	.word	3
	.word	1
	.word	11
	.word	1
	.word	3
	.word	1
	.word	9
	.word	6
	.word	6
	.word	1
	.word	3
	.word	9
	.section	.rodata.str1.8,"aMS",%progbits,1
	.align	3
.LC0:
	.string	"drivers/soc/realtek/rtd129x/hw_nat/rtl865x/../AsicDriver/rtl865x_asicBasic.c"
	.zero	3
.LC1:
	.string	"\nAssert Fail: %s %d"
	.zero	4
.LC2:
	.string	".........................................\n"
	.bss
	.align	2
.LANCHOR1 = . + 0
	.type	mcastForceAddOpCnt, %object
	.size	mcastForceAddOpCnt, 4
mcastForceAddOpCnt:
	.zero	4
	.type	mcastForceAddOpCnt6, %object
	.size	mcastForceAddOpCnt6, 4
mcastForceAddOpCnt6:
	.zero	4
	.type	rtl819x_checkSwCoreTimer, %object
	.size	rtl819x_checkSwCoreTimer, 4
rtl819x_checkSwCoreTimer:
	.zero	4
	.type	rtl819x_swHangCnt, %object
	.size	rtl819x_swHangCnt, 4
rtl819x_swHangCnt:
	.zero	4
	.type	rtl819x_lastTxDesc, %object
	.size	rtl819x_lastTxDesc, 4
rtl819x_lastTxDesc:
	.zero	4
	.type	rtl819x_lastRxDesc, %object
	.size	rtl819x_lastRxDesc, 4
rtl819x_lastRxDesc:
	.zero	4
	.text
.Letext0:
	.file 4 "include/asm-generic/int-ll64.h"
	.file 5 "include/uapi/asm-generic/int-ll64.h"
	.file 6 "include/uapi/linux/types.h"
	.file 7 "include/linux/types.h"
	.file 8 "include/uapi/linux/personality.h"
	.file 9 "include/linux/mm_types.h"
	.file 10 "include/linux/nodemask.h"
	.file 11 "include/linux/pid.h"
	.file 12 "include/linux/percpu.h"
	.file 13 "include/linux/mmzone.h"
	.file 14 "include/linux/hrtimer.h"
	.file 15 "include/net/rtl/rtl_types.h"
	.file 16 "drivers/soc/realtek/rtd129x/hw_nat/rtl865x/../AsicDriver/rtl865xc_asicregs.h"
	.file 17 "drivers/soc/realtek/rtd129x/hw_nat/rtl865x/../AsicDriver/rtl865x_asicBasic.h"
	.file 18 "./arch/arm64/include/asm/cachetype.h"
	.file 19 "include/linux/printk.h"
	.file 20 "include/linux/kernel.h"
	.file 21 "./arch/arm64/include/asm/thread_info.h"
	.file 22 "./arch/arm64/include/asm/hwcap.h"
	.file 23 "./arch/arm64/include/asm/cpufeature.h"
	.file 24 "include/linux/jiffies.h"
	.file 25 "include/linux/cpumask.h"
	.file 26 "./arch/arm64/include/asm/memory.h"
	.file 27 "./arch/arm64/include/asm/smp.h"
	.file 28 "include/linux/highuid.h"
	.file 29 "include/linux/sched.h"
	.file 30 "include/linux/workqueue.h"
	.file 31 "./arch/arm64/include/asm/topology.h"
	.file 32 "include/linux/percpu_counter.h"
	.file 33 "include/asm-generic/pgtable.h"
	.section	.note.GNU-stack,"",%progbits
